; Function Attrs: mustprogress nofree norecurse nosync nounwind willreturn memory(read, inaccessiblemem: none) uwtable
define dso_local range(i64 0, 2) i64 @aclitem_eq(ptr noundef readonly captures(none) %0) local_unnamed_addr #7 {
  %2 = getelementptr inbounds nuw i8, ptr %0, i64 32
  %3 = load i64, ptr %2, align 8
  %4 = inttoptr i64 %3 to ptr
  %5 = getelementptr inbounds nuw i8, ptr %0, i64 48
  %6 = load i64, ptr %5, align 8
  %7 = inttoptr i64 %6 to ptr
  %8 = getelementptr inbounds nuw i8, ptr %4, i64 8
  %9 = load i64, ptr %8, align 8
  %10 = getelementptr inbounds nuw i8, ptr %7, i64 8
  %11 = load i64, ptr %10, align 8
  %12 = icmp eq i64 %9, %11
  br i1 %12, label %13, label %24

13:                                               ; preds = %1
  %14 = load i32, ptr %4, align 8
  %15 = load i32, ptr %7, align 8
  %16 = icmp eq i32 %14, %15
  br i1 %16, label %17, label %24

17:                                               ; preds = %13
  %18 = getelementptr inbounds nuw i8, ptr %4, i64 4
  %19 = load i32, ptr %18, align 4
  %20 = getelementptr inbounds nuw i8, ptr %7, i64 4
  %21 = load i32, ptr %20, align 4
  %22 = icmp eq i32 %19, %21
  %23 = zext i1 %22 to i64
  br label %24

24:                                               ; preds = %17, %13, %1
  %25 = phi i64 [ 0, %13 ], [ 0, %1 ], [ %23, %17 ]
  ret i64 %25
}